; Function Attrs: uwtable
define dso_local void @_ZN4pbrt17ReportThreadStatsEv() local_unnamed_addr #4 personality ptr @__gxx_personality_v0 {
  %1 = tail call noundef i32 @pthread_mutex_lock(ptr noundef nonnull align 8 dereferenceable(40) @_ZZN4pbrt17ReportThreadStatsEvE5mutex) #27
  %.not.i.i = icmp eq i32 %1, 0
  br i1 %.not.i.i, label %_ZNSt10lock_guardISt5mutexEC2ERS0_.exit, label %2

2:                                                ; preds = %0
  tail call void @_ZSt20__throw_system_errori(i32 noundef %1) #28
  unreachable

_ZNSt10lock_guardISt5mutexEC2ERS0_.exit:          ; preds = %0
  %3 = load ptr, ptr @_ZN4pbrtL9statFuncsE, align 8, !tbaa !35
  %4 = load ptr, ptr %3, align 8, !tbaa !37
  %5 = getelementptr inbounds nuw i8, ptr %3, i64 8
  %6 = load ptr, ptr %5, align 8, !tbaa !37
  %.not7.i = icmp eq ptr %4, %6
  br i1 %.not7.i, label %_ZN4pbrt14StatRegisterer13CallCallbacksERNS_16StatsAccumulatorE.exit, label %.lr.ph.i

.lr.ph.i:                                         ; preds = %_ZNSt10lock_guardISt5mutexEC2ERS0_.exit, %.noexc
  %.sroa.04.08.i = phi ptr [ %8, %.noexc ], [ %4, %_ZNSt10lock_guardISt5mutexEC2ERS0_.exit ]
  %7 = load ptr, ptr %.sroa.04.08.i, align 8, !tbaa !39
  invoke void %7(ptr noundef nonnull align 8 dereferenceable(8) @_ZN4pbrtL16statsAccumulatorE)
          to label %.noexc unwind label %.loopexit

.noexc:                                           ; preds = %.lr.ph.i
  %8 = getelementptr inbounds nuw i8, ptr %.sroa.04.08.i, i64 8
  %.not.i = icmp eq ptr %8, %6
  br i1 %.not.i, label %_ZN4pbrt14StatRegisterer13CallCallbacksERNS_16StatsAccumulatorE.exit, label %.lr.ph.i

_ZN4pbrt14StatRegisterer13CallCallbacksERNS_16StatsAccumulatorE.exit: ; preds = %.noexc, %_ZNSt10lock_guardISt5mutexEC2ERS0_.exit
  %9 = load i8, ptr @_ZN4pbrt17pixelStatsEnabledE, align 1, !tbaa !40, !range !42, !noundef !43
  %10 = trunc nuw i8 %9 to i1
  br i1 %10, label %11, label %42

11:                                               ; preds = %_ZN4pbrt14StatRegisterer13CallCallbacksERNS_16StatsAccumulatorE.exit
  %12 = load i8, ptr @__tls_guard, align 1
  %13 = icmp eq i8 %12, 0
  br i1 %13, label %14, label %_ZTWN4pbrtL16threadStatsStateE.exit, !prof !44

14:                                               ; preds = %11
  store i8 1, ptr @__tls_guard, align 1
  %15 = tail call ptr @llvm.invariant.start.p0(i64 1, ptr nonnull @__tls_guard)
  tail call fastcc void @__cxx_global_var_init.2()
  br label %_ZTWN4pbrtL16threadStatsStateE.exit

_ZTWN4pbrtL16threadStatsStateE.exit:              ; preds = %11, %14
  %16 = tail call noundef nonnull align 8 ptr @llvm.threadlocal.address.p0(ptr align 8 @_ZN4pbrtL16threadStatsStateE)
  %17 = getelementptr inbounds nuw i8, ptr %16, i64 24
  invoke void @_ZN4pbrt16StatsAccumulator20AccumulatePixelStatsERKNS_21PixelStatsAccumulatorE(ptr noundef nonnull align 8 dereferenceable(8) @_ZN4pbrtL16statsAccumulatorE, ptr noundef nonnull align 8 dereferenceable(8) %17)
          to label %18 unwind label %.loopexit.split-lp

18:                                               ; preds = %_ZTWN4pbrtL16threadStatsStateE.exit
  %19 = invoke noalias noundef nonnull dereferenceable(248) ptr @_Znwm(i64 noundef 248) #26
          to label %20 unwind label %40

20:                                               ; preds = %18
  %21 = tail call noundef ptr @_ZN4pstd3pmr19new_delete_resourceEv() #27
  store i32 0, ptr %19, align 8, !tbaa !4
  %22 = getelementptr inbounds nuw i8, ptr %19, i64 4
  store i32 0, ptr %22, align 4, !tbaa !29
  %23 = getelementptr inbounds nuw i8, ptr %19, i64 8
  store i32 0, ptr %23, align 4, !tbaa !30
  %24 = getelementptr inbounds nuw i8, ptr %19, i64 16
  %25 = tail call noundef ptr @_ZN4pstd3pmr19new_delete_resourceEv() #27
  %26 = ptrtoint ptr %25 to i64
  store i64 %26, ptr %24, align 8, !tbaa !31
  %27 = getelementptr inbounds nuw i8, ptr %19, i64 24
  %28 = getelementptr inbounds nuw i8, ptr %19, i64 56
  %29 = ptrtoint ptr %21 to i64
  tail call void @llvm.memset.p0.i64(ptr noundef nonnull align 8 dereferenceable(32) %27, i8 0, i64 32, i1 false)
  store i64 %29, ptr %28, align 8, !tbaa !31
  %30 = getelementptr inbounds nuw i8, ptr %19, i64 64
  tail call void @llvm.memset.p0.i64(ptr noundef nonnull align 8 dereferenceable(24) %30, i8 0, i64 24, i1 false)
  %31 = getelementptr inbounds nuw i8, ptr %19, i64 88
  store i64 %29, ptr %31, align 8, !tbaa !31
  %32 = getelementptr inbounds nuw i8, ptr %19, i64 96
  tail call void @llvm.memset.p0.i64(ptr noundef nonnull align 8 dereferenceable(24) %32, i8 0, i64 24, i1 false)
  %33 = getelementptr inbounds nuw i8, ptr %19, i64 120
  store i64 %29, ptr %33, align 8, !tbaa !31
  %34 = getelementptr inbounds nuw i8, ptr %19, i64 128
  tail call void @llvm.memset.p0.i64(ptr noundef nonnull align 8 dereferenceable(120) %34, i8 0, i64 120, i1 false)
  %35 = load i8, ptr @__tls_guard, align 1
  %36 = icmp eq i8 %35, 0
  br i1 %36, label %37, label %_ZTWN4pbrtL16threadStatsStateE.exit4, !prof !44

37:                                               ; preds = %20
  store i8 1, ptr @__tls_guard, align 1
  %38 = tail call ptr @llvm.invariant.start.p0(i64 1, ptr nonnull @__tls_guard)
  tail call fastcc void @__cxx_global_var_init.2()
  br label %_ZTWN4pbrtL16threadStatsStateE.exit4

_ZTWN4pbrtL16threadStatsStateE.exit4:             ; preds = %20, %37
  %39 = ptrtoint ptr %19 to i64
  store i64 %39, ptr %17, align 8, !tbaa !45
  br label %42

.loopexit:                                        ; preds = %.lr.ph.i
  %lpad.loopexit = landingpad { ptr, i32 }
          cleanup
  br label %44

.loopexit.split-lp:                               ; preds = %_ZTWN4pbrtL16threadStatsStateE.exit
  %lpad.loopexit.split-lp = landingpad { ptr, i32 }
          cleanup
  br label %44

40:                                               ; preds = %18
  %41 = landingpad { ptr, i32 }
          cleanup
  br label %44

42:                                               ; preds = %_ZTWN4pbrtL16threadStatsStateE.exit4, %_ZN4pbrt14StatRegisterer13CallCallbacksERNS_16StatsAccumulatorE.exit
  %43 = tail call noundef i32 @pthread_mutex_unlock(ptr noundef nonnull align 8 dereferenceable(40) @_ZZN4pbrt17ReportThreadStatsEvE5mutex) #27
  ret void

44:                                               ; preds = %.loopexit, %.loopexit.split-lp, %40
  %.pn = phi { ptr, i32 } [ %41, %40 ], [ %lpad.loopexit, %.loopexit ], [ %lpad.loopexit.split-lp, %.loopexit.split-lp ]
  %45 = tail call noundef i32 @pthread_mutex_unlock(ptr noundef nonnull align 8 dereferenceable(40) @_ZZN4pbrt17ReportThreadStatsEvE5mutex) #27
  resume { ptr, i32 } %.pn
}